target datalayout = "e-m:e-p270:32:32-p271:32:32-p272:64:64-i64:64-i128:128-f80:128-n8:16:32:64-S128"
target triple = "x86_64-pc-linux-gnu"

%struct._object = type { %union.anon, ptr }
%union.anon = type { i64 }
%struct._typeobject = type { %struct.PyVarObject, ptr, i64, i64, ptr, i64, ptr, ptr, ptr, ptr, ptr, ptr, ptr, ptr, ptr, ptr, ptr, ptr, ptr, i64, ptr, ptr, ptr, ptr, i64, ptr, ptr, ptr, ptr, ptr, ptr, ptr, ptr, ptr, i64, ptr, ptr, ptr, ptr, ptr, ptr, ptr, ptr, ptr, ptr, ptr, i32, ptr, ptr, i8, i16 }
%struct.PyVarObject = type { %struct._object, i64 }
%struct.arraydescr = type { i8, i32, ptr, ptr, ptr, ptr, i32, i32 }
%struct.arrayobject = type { %struct.PyVarObject, ptr, i64, ptr, ptr, i64 }

; Function Attrs: inlinehint nounwind uwtable
define internal i64 @_PyObject_SIZE(ptr noundef %0) #3 {
  %2 = alloca ptr, align 8
  store ptr %0, ptr %2, align 8, !tbaa !18
  %3 = load ptr, ptr %2, align 8, !tbaa !18
  %4 = getelementptr inbounds nuw %struct._typeobject, ptr %3, i32 0, i32 2
  %5 = load i64, ptr %4, align 8, !tbaa !148
  ret i64 %5
}

; Function Attrs: inlinehint nounwind uwtable
define internal ptr @_Py_TYPE(ptr noundef %0) #3 {
  %2 = alloca ptr, align 8
  store ptr %0, ptr %2, align 8, !tbaa !3
  %3 = load ptr, ptr %2, align 8, !tbaa !3
  %4 = getelementptr inbounds nuw %struct._object, ptr %3, i32 0, i32 1
  %5 = load ptr, ptr %4, align 8, !tbaa !32
  ret ptr %5
}

; Function Attrs: nounwind uwtable
define internal ptr @array_array___sizeof___impl(ptr noundef %0) #0 {
  %2 = alloca ptr, align 8
  %3 = alloca i64, align 8
  store ptr %0, ptr %2, align 8, !tbaa !68
  call void @llvm.lifetime.start.p0(i64 8, ptr %3) #8
  %4 = load ptr, ptr %2, align 8, !tbaa !68
  %5 = call ptr @_Py_TYPE(ptr noundef %4)
  %6 = call i64 @_PyObject_SIZE(ptr noundef %5)
  store i64 %6, ptr %3, align 8, !tbaa !21
  %7 = load ptr, ptr %2, align 8, !tbaa !68
  %8 = getelementptr inbounds nuw %struct.arrayobject, ptr %7, i32 0, i32 2
  %9 = load i64, ptr %8, align 8, !tbaa !101
  %10 = load ptr, ptr %2, align 8, !tbaa !68
  %11 = getelementptr inbounds nuw %struct.arrayobject, ptr %10, i32 0, i32 3
  %12 = load ptr, ptr %11, align 8, !tbaa !99
  %13 = getelementptr inbounds nuw %struct.arraydescr, ptr %12, i32 0, i32 1
  %14 = load i32, ptr %13, align 4, !tbaa !52
  %15 = sext i32 %14 to i64
  %16 = mul i64 %9, %15
  %17 = load i64, ptr %3, align 8, !tbaa !21
  %18 = add i64 %17, %16
  store i64 %18, ptr %3, align 8, !tbaa !21
  %19 = load i64, ptr %3, align 8, !tbaa !21
  %20 = call ptr @PyLong_FromSize_t(i64 noundef %19)
  call void @llvm.lifetime.end.p0(i64 8, ptr %3) #8
  ret ptr %20
}

; Function Attrs: nounwind uwtable
define internal ptr @array_array___sizeof__(ptr noundef %0, ptr noundef %1) #0 {
  %3 = alloca ptr, align 8
  %4 = alloca ptr, align 8
  store ptr %0, ptr %3, align 8, !tbaa !3
  store ptr %1, ptr %4, align 8, !tbaa !3
  %5 = load ptr, ptr %3, align 8, !tbaa !3
  %6 = call ptr @array_array___sizeof___impl(ptr noundef %5)
  ret ptr %6
}