; Function Attrs: nounwind uwtable
define internal ptr @array_array___sizeof__(ptr noundef readonly captures(none) %0, ptr readnone captures(none) %1) #0 {
  %3 = getelementptr i8, ptr %0, i64 8
  %.val.i = load ptr, ptr %3, align 8, !tbaa !19
  %4 = getelementptr i8, ptr %.val.i, i64 32
  %.val4.i = load i64, ptr %4, align 8, !tbaa !127
  %5 = getelementptr inbounds nuw i8, ptr %0, i64 32
  %6 = load i64, ptr %5, align 8, !tbaa !79
  %7 = getelementptr inbounds nuw i8, ptr %0, i64 40
  %8 = load ptr, ptr %7, align 8, !tbaa !76
  %9 = getelementptr inbounds nuw i8, ptr %8, i64 4
  %10 = load i32, ptr %9, align 4, !tbaa !49
  %11 = sext i32 %10 to i64
  %12 = mul i64 %6, %11
  %13 = add i64 %12, %.val4.i
  %14 = tail call ptr @PyLong_FromSize_t(i64 noundef %13) #11
  ret ptr %14
}